target datalayout = "e-m:e-p270:32:32-p271:32:32-p272:64:64-i64:64-i128:128-f80:128-n8:16:32:64-S128"
target triple = "x86_64-pc-linux-gnu"

%struct.user = type { ptr, i32, ptr, ptr, ptr }
%struct.listNode = type { ptr, ptr, ptr }
%struct.listIter = type { ptr, i32 }
%struct.aclKeyResultCache = type { i32, %struct.getKeysResult }
%struct.getKeysResult = type { i32, i32, [6 x %struct.keyReference], ptr }
%struct.keyReference = type { i32, i32 }

; Function Attrs: nounwind uwtable
define dso_local void @cleanupACLKeyResultCache(ptr noundef %0) #0 {
  %2 = alloca ptr, align 8
  store ptr %0, ptr %2, align 8, !tbaa !32
  %3 = load ptr, ptr %2, align 8, !tbaa !32
  %4 = getelementptr inbounds nuw %struct.aclKeyResultCache, ptr %3, i32 0, i32 0
  %5 = load i32, ptr %4, align 8, !tbaa !176
  %6 = icmp ne i32 %5, 0
  br i1 %6, label %7, label %10

7:                                                ; preds = %1
  %8 = load ptr, ptr %2, align 8, !tbaa !32
  %9 = getelementptr inbounds nuw %struct.aclKeyResultCache, ptr %8, i32 0, i32 1
  call void @getKeysFreeResult(ptr noundef %9)
  br label %10

10:                                               ; preds = %7, %1
  ret void
}

; Function Attrs: nounwind uwtable
define dso_local void @initACLKeyResultCache(ptr noundef %0) #0 {
  %2 = alloca ptr, align 8
  store ptr %0, ptr %2, align 8, !tbaa !32
  %3 = load ptr, ptr %2, align 8, !tbaa !32
  %4 = getelementptr inbounds nuw %struct.aclKeyResultCache, ptr %3, i32 0, i32 0
  store i32 0, ptr %4, align 8, !tbaa !176
  ret void
}

; Function Attrs: nounwind uwtable
define dso_local i32 @ACLCheckAllUserCommandPerm(ptr noundef %0, ptr noundef %1, ptr noundef %2, i32 noundef %3, ptr noundef %4) #0 {
  %6 = alloca i32, align 4
  %7 = alloca ptr, align 8
  %8 = alloca ptr, align 8
  %9 = alloca ptr, align 8
  %10 = alloca i32, align 4
  %11 = alloca ptr, align 8
  %12 = alloca %struct.listIter, align 8
  %13 = alloca ptr, align 8
  %14 = alloca i32, align 4
  %15 = alloca i32, align 4
  %16 = alloca i32, align 4
  %17 = alloca i32, align 4
  %18 = alloca %struct.aclKeyResultCache, align 8
  %19 = alloca ptr, align 8
  %20 = alloca i32, align 4
  store ptr %0, ptr %7, align 8, !tbaa !32
  store ptr %1, ptr %8, align 8, !tbaa !108
  store ptr %2, ptr %9, align 8, !tbaa !175
  store i32 %3, ptr %10, align 4, !tbaa !17
  store ptr %4, ptr %11, align 8, !tbaa !131
  call void @llvm.lifetime.start.p0(i64 16, ptr %12) #14
  call void @llvm.lifetime.start.p0(i64 8, ptr %13) #14
  %21 = load ptr, ptr %7, align 8, !tbaa !32
  %22 = icmp eq ptr %21, null
  br i1 %22, label %23, label %24

23:                                               ; preds = %5
  store i32 0, ptr %6, align 4
  store i32 1, ptr %14, align 4
  br label %67

24:                                               ; preds = %5
  call void @llvm.lifetime.start.p0(i64 4, ptr %15) #14
  store i32 1, ptr %15, align 4, !tbaa !17
  call void @llvm.lifetime.start.p0(i64 4, ptr %16) #14
  store i32 0, ptr %16, align 4, !tbaa !17
  call void @llvm.lifetime.start.p0(i64 4, ptr %17) #14
  store i32 0, ptr %17, align 4, !tbaa !17
  call void @llvm.lifetime.start.p0(i64 72, ptr %18) #14
  call void @initACLKeyResultCache(ptr noundef %18)
  %25 = load ptr, ptr %7, align 8, !tbaa !32
  %26 = getelementptr inbounds nuw %struct.user, ptr %25, i32 0, i32 3
  %27 = load ptr, ptr %26, align 8, !tbaa !81
  call void @listRewind(ptr noundef %27, ptr noundef %12)
  br label %28

28:                                               ; preds = %61, %24
  %29 = call ptr @listNext(ptr noundef %12)
  store ptr %29, ptr %13, align 8, !tbaa !94
  %30 = icmp ne ptr %29, null
  br i1 %30, label %31, label %62

31:                                               ; preds = %28
  call void @llvm.lifetime.start.p0(i64 8, ptr %19) #14
  %32 = load ptr, ptr %13, align 8, !tbaa !94
  %33 = getelementptr inbounds nuw %struct.listNode, ptr %32, i32 0, i32 2
  %34 = load ptr, ptr %33, align 8, !tbaa !86
  store ptr %34, ptr %19, align 8, !tbaa !32
  call void @llvm.lifetime.start.p0(i64 4, ptr %20) #14
  %35 = load ptr, ptr %19, align 8, !tbaa !32
  %36 = load ptr, ptr %8, align 8, !tbaa !108
  %37 = load ptr, ptr %9, align 8, !tbaa !175
  %38 = load i32, ptr %10, align 4, !tbaa !17
  %39 = call i32 @ACLSelectorCheckCmd(ptr noundef %35, ptr noundef %36, ptr noundef %37, i32 noundef %38, ptr noundef %16, ptr noundef %18)
  store i32 %39, ptr %20, align 4, !tbaa !17
  %40 = load i32, ptr %20, align 4, !tbaa !17
  %41 = icmp eq i32 %40, 0
  br i1 %41, label %42, label %43

42:                                               ; preds = %31
  call void @cleanupACLKeyResultCache(ptr noundef %18)
  store i32 0, ptr %6, align 4
  store i32 1, ptr %14, align 4
  br label %59

43:                                               ; preds = %31
  %44 = load i32, ptr %20, align 4, !tbaa !17
  %45 = load i32, ptr %15, align 4, !tbaa !17
  %46 = icmp sgt i32 %44, %45
  br i1 %46, label %55, label %47

47:                                               ; preds = %43
  %48 = load i32, ptr %20, align 4, !tbaa !17
  %49 = load i32, ptr %15, align 4, !tbaa !17
  %50 = icmp eq i32 %48, %49
  br i1 %50, label %51, label %58

51:                                               ; preds = %47
  %52 = load i32, ptr %16, align 4, !tbaa !17
  %53 = load i32, ptr %17, align 4, !tbaa !17
  %54 = icmp sgt i32 %52, %53
  br i1 %54, label %55, label %58

55:                                               ; preds = %51, %43
  %56 = load i32, ptr %20, align 4, !tbaa !17
  store i32 %56, ptr %15, align 4, !tbaa !17
  %57 = load i32, ptr %16, align 4, !tbaa !17
  store i32 %57, ptr %17, align 4, !tbaa !17
  br label %58

58:                                               ; preds = %55, %51, %47
  store i32 0, ptr %14, align 4
  br label %59

59:                                               ; preds = %58, %42
  call void @llvm.lifetime.end.p0(i64 4, ptr %20) #14
  call void @llvm.lifetime.end.p0(i64 8, ptr %19) #14
  %60 = load i32, ptr %14, align 4
  switch i32 %60, label %66 [
    i32 0, label %61
  ]

61:                                               ; preds = %59
  br label %28, !llvm.loop !195

62:                                               ; preds = %28
  %63 = load i32, ptr %17, align 4, !tbaa !17
  %64 = load ptr, ptr %11, align 8, !tbaa !131
  store i32 %63, ptr %64, align 4, !tbaa !17
  call void @cleanupACLKeyResultCache(ptr noundef %18)
  %65 = load i32, ptr %15, align 4, !tbaa !17
  store i32 %65, ptr %6, align 4
  store i32 1, ptr %14, align 4
  br label %66

66:                                               ; preds = %62, %59
  call void @llvm.lifetime.end.p0(i64 72, ptr %18) #14
  call void @llvm.lifetime.end.p0(i64 4, ptr %17) #14
  call void @llvm.lifetime.end.p0(i64 4, ptr %16) #14
  call void @llvm.lifetime.end.p0(i64 4, ptr %15) #14
  br label %67

67:                                               ; preds = %66, %23
  call void @llvm.lifetime.end.p0(i64 8, ptr %13) #14
  call void @llvm.lifetime.end.p0(i64 16, ptr %12) #14
  %68 = load i32, ptr %6, align 4
  ret i32 %68
}