; Function Attrs: nounwind uwtable
define dso_local range(i32 0, 5) i32 @ACLCheckAllUserCommandPerm(ptr noundef readonly captures(address_is_null) %0, ptr noundef %1, ptr noundef %2, i32 noundef %3, ptr noundef writeonly captures(none) %4) local_unnamed_addr #0 {
  %6 = alloca %struct.listIter, align 8
  %7 = alloca i32, align 4
  %8 = alloca %struct.aclKeyResultCache, align 8
  call void @llvm.lifetime.start.p0(i64 16, ptr nonnull %6) #25
  %9 = icmp eq ptr %0, null
  br i1 %9, label %32, label %10

10:                                               ; preds = %5
  call void @llvm.lifetime.start.p0(i64 4, ptr nonnull %7) #25
  store i32 0, ptr %7, align 4, !tbaa !102
  call void @llvm.lifetime.start.p0(i64 72, ptr nonnull %8) #25
  store i32 0, ptr %8, align 8, !tbaa !171
  %11 = getelementptr inbounds nuw i8, ptr %0, i64 24
  %12 = load ptr, ptr %11, align 8, !tbaa !79
  call void @listRewind(ptr noundef %12, ptr noundef nonnull %6) #25
  %13 = call ptr @listNext(ptr noundef nonnull %6) #25
  %.not36 = icmp eq ptr %13, null
  br i1 %.not36, label %._crit_edge.thread, label %.lr.ph

._crit_edge.thread:                               ; preds = %10
  store i32 0, ptr %4, align 4, !tbaa !102
  br label %cleanupACLKeyResultCache.exit31

.lr.ph:                                           ; preds = %10, %cleanupACLKeyResultCache.exit
  %14 = phi ptr [ %28, %cleanupACLKeyResultCache.exit ], [ %13, %10 ]
  %.01938 = phi i32 [ %.120, %cleanupACLKeyResultCache.exit ], [ 0, %10 ]
  %.02237 = phi i32 [ %.123, %cleanupACLKeyResultCache.exit ], [ 1, %10 ]
  %15 = getelementptr inbounds nuw i8, ptr %14, i64 16
  %16 = load ptr, ptr %15, align 8, !tbaa !85
  %17 = call fastcc i32 @ACLSelectorCheckCmd(ptr noundef %16, ptr noundef %1, ptr noundef %2, i32 noundef %3, ptr noundef %7, ptr noundef %8)
  %.not28 = icmp eq i32 %17, 0
  br i1 %.not28, label %18, label %22

18:                                               ; preds = %.lr.ph
  %19 = load i32, ptr %8, align 8, !tbaa !171
  %.not.i = icmp eq i32 %19, 0
  br i1 %.not.i, label %cleanupACLKeyResultCache.exit31, label %20

20:                                               ; preds = %18
  %21 = getelementptr inbounds nuw i8, ptr %8, i64 8
  call void @getKeysFreeResult(ptr noundef nonnull %21) #25
  br label %cleanupACLKeyResultCache.exit31

22:                                               ; preds = %.lr.ph
  %23 = icmp samesign ugt i32 %17, %.02237
  %.pre = load i32, ptr %7, align 4, !tbaa !102
  br i1 %23, label %27, label %24

24:                                               ; preds = %22
  %25 = icmp eq i32 %17, %.02237
  %26 = icmp sgt i32 %.pre, %.01938
  %or.cond = select i1 %25, i1 %26, i1 false
  br i1 %or.cond, label %27, label %cleanupACLKeyResultCache.exit

27:                                               ; preds = %24, %22
  br label %cleanupACLKeyResultCache.exit

cleanupACLKeyResultCache.exit:                    ; preds = %24, %27
  %.123 = phi i32 [ %17, %27 ], [ %.02237, %24 ]
  %.120 = phi i32 [ %.pre, %27 ], [ %.01938, %24 ]
  %28 = call ptr @listNext(ptr noundef nonnull %6) #25
  %.not = icmp eq ptr %28, null
  br i1 %.not, label %._crit_edge, label %.lr.ph, !llvm.loop !188

._crit_edge:                                      ; preds = %cleanupACLKeyResultCache.exit
  %.pre40 = load i32, ptr %8, align 8, !tbaa !171
  %29 = icmp eq i32 %.pre40, 0
  store i32 %.120, ptr %4, align 4, !tbaa !102
  br i1 %29, label %cleanupACLKeyResultCache.exit31, label %30

30:                                               ; preds = %._crit_edge
  %31 = getelementptr inbounds nuw i8, ptr %8, i64 8
  call void @getKeysFreeResult(ptr noundef nonnull %31) #25
  br label %cleanupACLKeyResultCache.exit31

cleanupACLKeyResultCache.exit31:                  ; preds = %._crit_edge.thread, %18, %20, %30, %._crit_edge
  %.3 = phi i32 [ %.123, %._crit_edge ], [ %.123, %30 ], [ 0, %20 ], [ 0, %18 ], [ 1, %._crit_edge.thread ]
  call void @llvm.lifetime.end.p0(i64 72, ptr nonnull %8) #25
  call void @llvm.lifetime.end.p0(i64 4, ptr nonnull %7) #25
  br label %32

32:                                               ; preds = %5, %cleanupACLKeyResultCache.exit31
  %.0 = phi i32 [ %.3, %cleanupACLKeyResultCache.exit31 ], [ 0, %5 ]
  call void @llvm.lifetime.end.p0(i64 16, ptr nonnull %6) #25
  ret i32 %.0
}